; ModuleID = 'source-C-CXX/55/152.c'
source_filename = "source-C-CXX/55/152.c"
target datalayout = "e-m:e-p270:32:32-p271:32:32-p272:64:64-i64:64-f80:128-n8:16:32:64-S128"
target triple = "x86_64-pc-linux-gnu"

@.str = private unnamed_addr constant [3 x i8] c"%d\00", align 1

; Function Attrs: nofree nounwind sspstrong uwtable
define dso_local i32 @main() local_unnamed_addr #0 {
  %1 = alloca i32, align 4
  %2 = alloca [5 x i32], align 16
  %3 = bitcast i32* %1 to i8*
  call void @llvm.lifetime.start.p0i8(i64 4, i8* nonnull %3) #3
  %4 = bitcast [5 x i32]* %2 to i8*
  call void @llvm.lifetime.start.p0i8(i64 20, i8* nonnull %4) #3
  %5 = call i32 (i8*, ...) @__isoc99_scanf(i8* getelementptr inbounds ([3 x i8], [3 x i8]* @.str, i64 0, i64 0), i32* nonnull %1)
  %6 = load i32, i32* %1, align 4, !tbaa !5
  br label %7

7:                                                ; preds = %7, %0
  %8 = phi i64 [ %12, %7 ], [ 0, %0 ]
  %9 = phi i32 [ %13, %7 ], [ %6, %0 ]
  %10 = srem i32 %9, 10
  %11 = getelementptr inbounds [5 x i32], [5 x i32]* %2, i64 0, i64 %8
  store i32 %10, i32* %11, align 4, !tbaa !5
  %12 = add nuw i64 %8, 1
  %13 = sdiv i32 %9, 10
  %14 = add i32 %9, -100
  %15 = icmp ult i32 %14, 900
  br i1 %15, label %7, label %16, !llvm.loop !9

16:                                               ; preds = %7
  store i32 %13, i32* %1, align 4, !tbaa !5
  %17 = and i64 %12, 4294967295
  %18 = getelementptr inbounds [5 x i32], [5 x i32]* %2, i64 0, i64 %17
  store i32 %13, i32* %18, align 4, !tbaa !5
  %19 = and i64 %8, 4294967295
  br label %20

20:                                               ; preds = %16, %20
  %21 = phi i64 [ 0, %16 ], [ %25, %20 ]
  %22 = getelementptr inbounds [5 x i32], [5 x i32]* %2, i64 0, i64 %21
  %23 = load i32, i32* %22, align 4, !tbaa !5
  %24 = call i32 (i8*, ...) @printf(i8* nonnull dereferenceable(1) getelementptr inbounds ([3 x i8], [3 x i8]* @.str, i64 0, i64 0), i32 %23)
  %25 = add nuw i64 %21, 1
  %26 = icmp ugt i64 %21, %19
  br i1 %26, label %27, label %20, !llvm.loop !11

27:                                               ; preds = %20
  call void @llvm.lifetime.end.p0i8(i64 20, i8* nonnull %4) #3
  call void @llvm.lifetime.end.p0i8(i64 4, i8* nonnull %3) #3
  ret i32 0
}

; Function Attrs: argmemonly mustprogress nofree nosync nounwind willreturn
declare void @llvm.lifetime.start.p0i8(i64 immarg, i8* nocapture) #1

; Function Attrs: nofree nounwind
declare noundef i32 @__isoc99_scanf(i8* nocapture noundef readonly, ...) local_unnamed_addr #2

; Function Attrs: nofree nounwind
declare noundef i32 @printf(i8* nocapture noundef readonly, ...) local_unnamed_addr #2

; Function Attrs: argmemonly mustprogress nofree nosync nounwind willreturn
declare void @llvm.lifetime.end.p0i8(i64 immarg, i8* nocapture) #1


!llvm.module.flags = !{!0, !1, !2, !3}
!llvm.ident = !{!4}

!0 = !{i32 1, !"wchar_size", i32 4}
!1 = !{i32 7, !"PIC Level", i32 2}
!2 = !{i32 7, !"PIE Level", i32 2}
!3 = !{i32 7, !"uwtable", i32 1}
!4 = !{!"clang version 13.0.0"}
!5 = !{!6, !6, i64 0}
!6 = !{!"int", !7, i64 0}
!7 = !{!"omnipotent char", !8, i64 0}
!8 = !{!"Simple C/C++ TBAA"}
!9 = distinct !{!9, !10}
!10 = !{!"llvm.loop.mustprogress"}
!11 = distinct !{!11, !10}
